target datalayout = "e-m:e-p270:32:32-p271:32:32-p272:64:64-i64:64-i128:128-f80:128-n8:16:32:64-S128"
target triple = "x86_64-pc-linux-gnu"

%"struct.Luau::Lexeme" = type { i32, %"struct.Luau::Location", i32, %union.anon }
%"struct.Luau::Location" = type { %"struct.Luau::Position", %"struct.Luau::Position" }
%"struct.Luau::Position" = type { i32, i32 }
%union.anon = type { ptr }

; Function Attrs: mustprogress nounwind uwtable
define dso_local void @_ZN4Luau6LexemeC2ERKNS_8LocationENS0_4TypeE(ptr noundef nonnull align 8 dereferenceable(32) %0, ptr noundef nonnull align 4 dereferenceable(16) %1, i32 noundef %2) unnamed_addr #2 align 2 {
  %4 = alloca ptr, align 8
  %5 = alloca ptr, align 8
  %6 = alloca i32, align 4
  store ptr %0, ptr %4, align 8, !tbaa !22
  store ptr %1, ptr %5, align 8, !tbaa !24
  store i32 %2, ptr %6, align 4, !tbaa !26
  %7 = load ptr, ptr %4, align 8
  %8 = getelementptr inbounds nuw %"struct.Luau::Lexeme", ptr %7, i32 0, i32 0
  %9 = load i32, ptr %6, align 4, !tbaa !26
  store i32 %9, ptr %8, align 8, !tbaa !28
  %10 = getelementptr inbounds nuw %"struct.Luau::Lexeme", ptr %7, i32 0, i32 1
  %11 = load ptr, ptr %5, align 8, !tbaa !24
  call void @llvm.memcpy.p0.p0.i64(ptr align 4 %10, ptr align 4 %11, i64 16, i1 false), !tbaa.struct !32
  %12 = getelementptr inbounds nuw %"struct.Luau::Lexeme", ptr %7, i32 0, i32 2
  store i32 0, ptr %12, align 4, !tbaa !33
  %13 = getelementptr inbounds nuw %"struct.Luau::Lexeme", ptr %7, i32 0, i32 3
  store ptr null, ptr %13, align 8, !tbaa !34
  ret void
}